target datalayout = "e-m:e-p270:32:32-p271:32:32-p272:64:64-i64:64-i128:128-f80:128-n8:16:32:64-S128"
target triple = "x86_64-unknown-linux-gnu"

%"struct.node::AssertionInfo" = type { ptr, ptr, ptr }
%struct.anon = type { i32, i8, %struct.stat, %struct.termios }
%struct.stat = type { i64, i64, i64, i32, i32, i32, i32, i64, i64, i64, i64, %struct.timespec, %struct.timespec, %struct.timespec, [3 x i64] }
%struct.timespec = type { i64, i64 }
%struct.termios = type { i32, i32, i32, i32, i8, [32 x i8], i32, i32 }
%struct.__sigset_t = type { [16 x i64] }

@_ZN4nodeL5stdioE = internal global [3 x %struct.anon] zeroinitializer, align 16
@_ZZN4node10ResetStdioEvE4args = internal constant %"struct.node::AssertionInfo" { ptr @.str.45, ptr @.str.46, ptr @.str.47 }, align 8
@_ZZN4node10ResetStdioEvE4args_0 = internal constant %"struct.node::AssertionInfo" { ptr @.str.48, ptr @.str.49, ptr @.str.47 }, align 8
@_ZZN4node10ResetStdioEvE4args_1 = internal constant %"struct.node::AssertionInfo" { ptr @.str.50, ptr @.str.51, ptr @.str.47 }, align 8
@_ZZN4node10ResetStdioEvE4args_2 = internal constant %"struct.node::AssertionInfo" { ptr @.str.52, ptr @.str.53, ptr @.str.47 }, align 8
@_ZZN4node10ResetStdioEvE4args_3 = internal constant %"struct.node::AssertionInfo" { ptr @.str.54, ptr @.str.55, ptr @.str.47 }, align 8
@_ZZN4node10ResetStdioEvE4args_4 = internal constant %"struct.node::AssertionInfo" { ptr @.str.56, ptr @.str.57, ptr @.str.47 }, align 8
@_ZN4nodeL18init_process_flagsE = internal global { i32 } zeroinitializer, align 4

; Function Attrs: mustprogress nounwind uwtable
define linkonce_odr dso_local noundef i32 @_ZStanSt12memory_orderSt23__memory_order_modifier(i32 noundef %__m, i32 noundef %__mod) #5 comdat {
entry:
  %__m.addr = alloca i32, align 4
  %__mod.addr = alloca i32, align 4
  store i32 %__m, ptr %__m.addr, align 4
  store i32 %__mod, ptr %__mod.addr, align 4
  %0 = load i32, ptr %__m.addr, align 4
  %1 = load i32, ptr %__mod.addr, align 4
  %and = and i32 %0, %1
  ret i32 %and
}

; Function Attrs: mustprogress nounwind uwtable
define dso_local void @_ZN4node10ResetStdioEv() #5 {
entry:
  %this.addr.i = alloca ptr, align 8
  %__m.addr.i = alloca i32, align 4
  %__b.i = alloca i32, align 4
  %atomic-temp.i = alloca i32, align 4
  %__range1 = alloca ptr, align 8
  %__begin1 = alloca ptr, align 8
  %__end1 = alloca ptr, align 8
  %s = alloca ptr, align 8
  %fd = alloca i32, align 4
  %tmp = alloca %struct.stat, align 8
  %is_same_file = alloca i8, align 1
  %flags = alloca i32, align 4
  %err = alloca i32, align 4
  %sa = alloca %struct.__sigset_t, align 8
  %err76 = alloca i32, align 4
  store ptr @_ZN4nodeL18init_process_flagsE, ptr %this.addr.i, align 8
  store i32 5, ptr %__m.addr.i, align 4
  %this1.i = load ptr, ptr %this.addr.i, align 8
  %0 = load i32, ptr %__m.addr.i, align 4
  %call.i = call noundef i32 @_ZStanSt12memory_orderSt23__memory_order_modifier(i32 noundef %0, i32 noundef 65535)
  store i32 %call.i, ptr %__b.i, align 4
  %1 = load i32, ptr %__m.addr.i, align 4
  switch i32 %1, label %monotonic.i [
    i32 1, label %acquire.i
    i32 2, label %acquire.i
    i32 5, label %seqcst.i
  ]

monotonic.i:                                      ; preds = %entry
  %2 = load atomic i32, ptr %this1.i monotonic, align 4
  store i32 %2, ptr %atomic-temp.i, align 4
  br label %_ZNKSt13__atomic_baseIjE4loadESt12memory_order.exit

acquire.i:                                        ; preds = %entry, %entry
  %3 = load atomic i32, ptr %this1.i acquire, align 4
  store i32 %3, ptr %atomic-temp.i, align 4
  br label %_ZNKSt13__atomic_baseIjE4loadESt12memory_order.exit

seqcst.i:                                         ; preds = %entry
  %4 = load atomic i32, ptr %this1.i seq_cst, align 4
  store i32 %4, ptr %atomic-temp.i, align 4
  br label %_ZNKSt13__atomic_baseIjE4loadESt12memory_order.exit

_ZNKSt13__atomic_baseIjE4loadESt12memory_order.exit: ; preds = %seqcst.i, %acquire.i, %monotonic.i
  %5 = load i32, ptr %atomic-temp.i, align 4
  %and = and i32 %5, 16
  %tobool = icmp ne i32 %and, 0
  br i1 %tobool, label %if.then, label %if.end

if.then:                                          ; preds = %_ZNKSt13__atomic_baseIjE4loadESt12memory_order.exit
  br label %for.end

if.end:                                           ; preds = %_ZNKSt13__atomic_baseIjE4loadESt12memory_order.exit
  %call1 = call i32 @uv_tty_reset_mode()
  store ptr @_ZN4nodeL5stdioE, ptr %__range1, align 8
  store ptr @_ZN4nodeL5stdioE, ptr %__begin1, align 8
  store ptr getelementptr inbounds (%struct.anon, ptr @_ZN4nodeL5stdioE, i64 3), ptr %__end1, align 8
  br label %for.cond

for.cond:                                         ; preds = %for.inc, %if.end
  %6 = load ptr, ptr %__begin1, align 8
  %7 = load ptr, ptr %__end1, align 8
  %cmp = icmp ne ptr %6, %7
  br i1 %cmp, label %for.body, label %for.end

for.body:                                         ; preds = %for.cond
  %8 = load ptr, ptr %__begin1, align 8
  store ptr %8, ptr %s, align 8
  %9 = load ptr, ptr %s, align 8
  %sub.ptr.lhs.cast = ptrtoint ptr %9 to i64
  %sub.ptr.sub = sub i64 %sub.ptr.lhs.cast, ptrtoint (ptr @_ZN4nodeL5stdioE to i64)
  %sub.ptr.div = sdiv exact i64 %sub.ptr.sub, 216
  %conv = trunc i64 %sub.ptr.div to i32
  store i32 %conv, ptr %fd, align 4
  %10 = load i32, ptr %fd, align 4
  %call2 = call i32 @fstat64(i32 noundef %10, ptr noundef %tmp) #3
  %cmp3 = icmp eq i32 -1, %call2
  br i1 %cmp3, label %if.then4, label %if.end14

if.then4:                                         ; preds = %for.body
  br label %do.body

do.body:                                          ; preds = %if.then4
  %call5 = call ptr @__errno_location() #17
  %11 = load i32, ptr %call5, align 4
  %cmp6 = icmp eq i32 %11, 9
  %lnot = xor i1 %cmp6, true
  %lnot7 = xor i1 %lnot, true
  %lnot8 = xor i1 %lnot7, true
  br i1 %lnot8, label %if.then10, label %if.end12

if.then10:                                        ; preds = %do.body
  br label %do.body11

do.body11:                                        ; preds = %if.then10
  call void @_ZN4node6AssertERKNS_13AssertionInfoE(ptr noundef nonnull align 8 dereferenceable(24) @_ZZN4node10ResetStdioEvE4args)
  call void @abort() #18
  unreachable

do.end:                                           ; No predecessors!
  br label %if.end12

if.end12:                                         ; preds = %do.end, %do.body
  br label %do.end13

do.end13:                                         ; preds = %if.end12
  br label %for.inc

if.end14:                                         ; preds = %for.body
  %12 = load ptr, ptr %s, align 8
  %stat = getelementptr inbounds %struct.anon, ptr %12, i32 0, i32 2
  %st_dev = getelementptr inbounds %struct.stat, ptr %stat, i32 0, i32 0
  %13 = load i64, ptr %st_dev, align 8
  %st_dev15 = getelementptr inbounds %struct.stat, ptr %tmp, i32 0, i32 0
  %14 = load i64, ptr %st_dev15, align 8
  %cmp16 = icmp eq i64 %13, %14
  br i1 %cmp16, label %land.rhs, label %land.end

land.rhs:                                         ; preds = %if.end14
  %15 = load ptr, ptr %s, align 8
  %stat17 = getelementptr inbounds %struct.anon, ptr %15, i32 0, i32 2
  %st_ino = getelementptr inbounds %struct.stat, ptr %stat17, i32 0, i32 1
  %16 = load i64, ptr %st_ino, align 8
  %st_ino18 = getelementptr inbounds %struct.stat, ptr %tmp, i32 0, i32 1
  %17 = load i64, ptr %st_ino18, align 8
  %cmp19 = icmp eq i64 %16, %17
  br label %land.end

land.end:                                         ; preds = %land.rhs, %if.end14
  %18 = phi i1 [ false, %if.end14 ], [ %cmp19, %land.rhs ]
  %frombool = zext i1 %18 to i8
  store i8 %frombool, ptr %is_same_file, align 1
  %19 = load i8, ptr %is_same_file, align 1
  %tobool20 = trunc i8 %19 to i1
  br i1 %tobool20, label %if.end22, label %if.then21

if.then21:                                        ; preds = %land.end
  br label %for.inc

if.end22:                                         ; preds = %land.end
  br label %do.body23

do.body23:                                        ; preds = %land.end29, %if.end22
  %20 = load i32, ptr %fd, align 4
  %call24 = call i32 (i32, i32, ...) @fcntl64(i32 noundef %20, i32 noundef 3)
  store i32 %call24, ptr %flags, align 4
  br label %do.cond

do.cond:                                          ; preds = %do.body23
  %21 = load i32, ptr %flags, align 4
  %cmp25 = icmp eq i32 %21, -1
  br i1 %cmp25, label %land.rhs26, label %land.end29

land.rhs26:                                       ; preds = %do.cond
  %call27 = call ptr @__errno_location() #17
  %22 = load i32, ptr %call27, align 4
  %cmp28 = icmp eq i32 %22, 4
  br label %land.end29

land.end29:                                       ; preds = %land.rhs26, %do.cond
  %23 = phi i1 [ false, %do.cond ], [ %cmp28, %land.rhs26 ]
  br i1 %23, label %do.body23, label %do.end30, !llvm.loop !5

do.end30:                                         ; preds = %land.end29
  br label %do.body31

do.body31:                                        ; preds = %do.end30
  %24 = load i32, ptr %flags, align 4
  %cmp32 = icmp ne i32 %24, -1
  %lnot33 = xor i1 %cmp32, true
  %lnot34 = xor i1 %lnot33, true
  %lnot35 = xor i1 %lnot34, true
  br i1 %lnot35, label %if.then37, label %if.end41

if.then37:                                        ; preds = %do.body31
  br label %do.body38

do.body38:                                        ; preds = %if.then37
  call void @_ZN4node6AssertERKNS_13AssertionInfoE(ptr noundef nonnull align 8 dereferenceable(24) @_ZZN4node10ResetStdioEvE4args_0)
  call void @abort() #18
  unreachable

do.end40:                                         ; No predecessors!
  br label %if.end41

if.end41:                                         ; preds = %do.end40, %do.body31
  br label %do.end43

do.end43:                                         ; preds = %if.end41
  %25 = load i32, ptr %flags, align 4
  %26 = load ptr, ptr %s, align 8
  %flags44 = getelementptr inbounds %struct.anon, ptr %26, i32 0, i32 0
  %27 = load i32, ptr %flags44, align 8
  %xor = xor i32 %25, %27
  %and45 = and i32 2048, %xor
  %tobool46 = icmp ne i32 %and45, 0
  br i1 %tobool46, label %if.then47, label %if.end73

if.then47:                                        ; preds = %do.end43
  %28 = load i32, ptr %flags, align 4
  %and48 = and i32 %28, -2049
  store i32 %and48, ptr %flags, align 4
  %29 = load ptr, ptr %s, align 8
  %flags49 = getelementptr inbounds %struct.anon, ptr %29, i32 0, i32 0
  %30 = load i32, ptr %flags49, align 8
  %and50 = and i32 %30, 2048
  %31 = load i32, ptr %flags, align 4
  %or = or i32 %31, %and50
  store i32 %or, ptr %flags, align 4
  br label %do.body51

do.body51:                                        ; preds = %land.end58, %if.then47
  %32 = load i32, ptr %fd, align 4
  %33 = load i32, ptr %flags, align 4
  %call52 = call i32 (i32, i32, ...) @fcntl64(i32 noundef %32, i32 noundef 4, i32 noundef %33)
  store i32 %call52, ptr %err, align 4
  br label %do.cond53

do.cond53:                                        ; preds = %do.body51
  %34 = load i32, ptr %err, align 4
  %cmp54 = icmp eq i32 %34, -1
  br i1 %cmp54, label %land.rhs55, label %land.end58

land.rhs55:                                       ; preds = %do.cond53
  %call56 = call ptr @__errno_location() #17
  %35 = load i32, ptr %call56, align 4
  %cmp57 = icmp eq i32 %35, 4
  br label %land.end58

land.end58:                                       ; preds = %land.rhs55, %do.cond53
  %36 = phi i1 [ false, %do.cond53 ], [ %cmp57, %land.rhs55 ]
  br i1 %36, label %do.body51, label %do.end59, !llvm.loop !7

do.end59:                                         ; preds = %land.end58
  br label %do.body60

do.body60:                                        ; preds = %do.end59
  %37 = load i32, ptr %err, align 4
  %cmp61 = icmp ne i32 %37, -1
  %lnot62 = xor i1 %cmp61, true
  %lnot63 = xor i1 %lnot62, true
  %lnot64 = xor i1 %lnot63, true
  br i1 %lnot64, label %if.then66, label %if.end70

if.then66:                                        ; preds = %do.body60
  br label %do.body67

do.body67:                                        ; preds = %if.then66
  call void @_ZN4node6AssertERKNS_13AssertionInfoE(ptr noundef nonnull align 8 dereferenceable(24) @_ZZN4node10ResetStdioEvE4args_1)
  call void @abort() #18
  unreachable

do.end69:                                         ; No predecessors!
  br label %if.end70

if.end70:                                         ; preds = %do.end69, %do.body60
  br label %do.end72

do.end72:                                         ; preds = %if.end70
  br label %if.end73

if.end73:                                         ; preds = %do.end72, %do.end43
  %38 = load ptr, ptr %s, align 8
  %isatty = getelementptr inbounds %struct.anon, ptr %38, i32 0, i32 1
  %39 = load i8, ptr %isatty, align 4
  %tobool74 = trunc i8 %39 to i1
  br i1 %tobool74, label %if.then75, label %if.end134

if.then75:                                        ; preds = %if.end73
  %call77 = call i32 @sigemptyset(ptr noundef %sa) #3
  %call78 = call i32 @sigaddset(ptr noundef %sa, i32 noundef 22) #3
  br label %do.body79

do.body79:                                        ; preds = %if.then75
  %call80 = call i32 @pthread_sigmask(i32 noundef 0, ptr noundef %sa, ptr noundef null) #3
  %cmp81 = icmp eq i32 0, %call80
  %lnot82 = xor i1 %cmp81, true
  %lnot83 = xor i1 %lnot82, true
  %lnot84 = xor i1 %lnot83, true
  br i1 %lnot84, label %if.then86, label %if.end90

if.then86:                                        ; preds = %do.body79
  br label %do.body87

do.body87:                                        ; preds = %if.then86
  call void @_ZN4node6AssertERKNS_13AssertionInfoE(ptr noundef nonnull align 8 dereferenceable(24) @_ZZN4node10ResetStdioEvE4args_2)
  call void @abort() #18
  unreachable

do.end89:                                         ; No predecessors!
  br label %if.end90

if.end90:                                         ; preds = %do.end89, %do.body79
  br label %do.end92

do.end92:                                         ; preds = %if.end90
  br label %do.body93

do.body93:                                        ; preds = %land.end100, %do.end92
  %40 = load i32, ptr %fd, align 4
  %41 = load ptr, ptr %s, align 8
  %termios = getelementptr inbounds %struct.anon, ptr %41, i32 0, i32 3
  %call94 = call i32 @tcsetattr(i32 noundef %40, i32 noundef 0, ptr noundef %termios) #3
  store i32 %call94, ptr %err76, align 4
  br label %do.cond95

do.cond95:                                        ; preds = %do.body93
  %42 = load i32, ptr %err76, align 4
  %cmp96 = icmp eq i32 %42, -1
  br i1 %cmp96, label %land.rhs97, label %land.end100

land.rhs97:                                       ; preds = %do.cond95
  %call98 = call ptr @__errno_location() #17
  %43 = load i32, ptr %call98, align 4
  %cmp99 = icmp eq i32 %43, 4
  br label %land.end100

land.end100:                                      ; preds = %land.rhs97, %do.cond95
  %44 = phi i1 [ false, %do.cond95 ], [ %cmp99, %land.rhs97 ]
  br i1 %44, label %do.body93, label %do.end101, !llvm.loop !8

do.end101:                                        ; preds = %land.end100
  br label %do.body102

do.body102:                                       ; preds = %do.end101
  %call103 = call i32 @pthread_sigmask(i32 noundef 1, ptr noundef %sa, ptr noundef null) #3
  %cmp104 = icmp eq i32 0, %call103
  %lnot105 = xor i1 %cmp104, true
  %lnot106 = xor i1 %lnot105, true
  %lnot107 = xor i1 %lnot106, true
  br i1 %lnot107, label %if.then109, label %if.end113

if.then109:                                       ; preds = %do.body102
  br label %do.body110

do.body110:                                       ; preds = %if.then109
  call void @_ZN4node6AssertERKNS_13AssertionInfoE(ptr noundef nonnull align 8 dereferenceable(24) @_ZZN4node10ResetStdioEvE4args_3)
  call void @abort() #18
  unreachable

do.end112:                                        ; No predecessors!
  br label %if.end113

if.end113:                                        ; preds = %do.end112, %do.body102
  br label %do.end115

do.end115:                                        ; preds = %if.end113
  br label %do.body116

do.body116:                                       ; preds = %do.end115
  %45 = load i32, ptr %err76, align 4
  %cmp117 = icmp ne i32 %45, 0
  br i1 %cmp117, label %lor.rhs, label %lor.end

lor.rhs:                                          ; preds = %do.body116
  %46 = load i32, ptr %err76, align 4
  %cmp118 = icmp eq i32 %46, -1
  br i1 %cmp118, label %land.rhs119, label %land.end122

land.rhs119:                                      ; preds = %lor.rhs
  %call120 = call ptr @__errno_location() #17
  %47 = load i32, ptr %call120, align 4
  %cmp121 = icmp eq i32 %47, 1
  br label %land.end122

land.end122:                                      ; preds = %land.rhs119, %lor.rhs
  %48 = phi i1 [ false, %lor.rhs ], [ %cmp121, %land.rhs119 ]
  br label %lor.end

lor.end:                                          ; preds = %land.end122, %do.body116
  %49 = phi i1 [ true, %do.body116 ], [ %48, %land.end122 ]
  %lnot123 = xor i1 %49, true
  %lnot124 = xor i1 %lnot123, true
  %lnot125 = xor i1 %lnot124, true
  br i1 %lnot125, label %if.then127, label %if.end131

if.then127:                                       ; preds = %lor.end
  br label %do.body128

do.body128:                                       ; preds = %if.then127
  call void @_ZN4node6AssertERKNS_13AssertionInfoE(ptr noundef nonnull align 8 dereferenceable(24) @_ZZN4node10ResetStdioEvE4args_4)
  call void @abort() #18
  unreachable

do.end130:                                        ; No predecessors!
  br label %if.end131

if.end131:                                        ; preds = %do.end130, %lor.end
  br label %do.end133

do.end133:                                        ; preds = %if.end131
  br label %if.end134

if.end134:                                        ; preds = %do.end133, %if.end73
  br label %for.inc

for.inc:                                          ; preds = %if.end134, %if.then21, %do.end13
  %50 = load ptr, ptr %__begin1, align 8
  %incdec.ptr = getelementptr inbounds %struct.anon, ptr %50, i32 1
  store ptr %incdec.ptr, ptr %__begin1, align 8
  br label %for.cond

for.end:                                          ; preds = %for.cond, %if.then
  ret void
}