; Function Attrs: mustprogress nounwind uwtable
define dso_local void @_ZN4node10ResetStdioEv() #4 {
entry:
  %tmp = alloca %struct.stat, align 8
  %sa = alloca %struct.__sigset_t, align 8
  %0 = load atomic i32, ptr @_ZN4nodeL18init_process_flagsE.0 seq_cst, align 4
  %and = and i32 %0, 16
  %tobool.not = icmp eq i32 %and, 0
  br i1 %tobool.not, label %if.end, label %for.end

if.end:                                           ; preds = %entry
  %call1 = tail call i32 @uv_tty_reset_mode() #23
  %st_ino18 = getelementptr inbounds i8, ptr %tmp, i64 8
  br label %for.body

for.body:                                         ; preds = %if.end, %for.inc
  %__begin1.0.idx23 = phi i64 [ 0, %if.end ], [ %__begin1.0.add, %for.inc ]
  %__begin1.0.ptr24 = getelementptr inbounds i8, ptr @_ZN4nodeL5stdioE, i64 %__begin1.0.idx23
  %sub.ptr.div = udiv exact i64 %__begin1.0.idx23, 216
  %conv = trunc i64 %sub.ptr.div to i32
  %call2 = call i32 @fstat64(i32 noundef %conv, ptr noundef nonnull %tmp) #23
  %cmp3 = icmp eq i32 %call2, -1
  br i1 %cmp3, label %do.body, label %if.end14

do.body:                                          ; preds = %for.body
  %call5 = tail call ptr @__errno_location() #25
  %1 = load i32, ptr %call5, align 4
  %cmp6.not = icmp eq i32 %1, 9
  br i1 %cmp6.not, label %for.inc, label %do.body11

do.body11:                                        ; preds = %do.body
  call void @_ZN4node6AssertERKNS_13AssertionInfoE(ptr noundef nonnull align 8 dereferenceable(24) @_ZZN4node10ResetStdioEvE4args) #23
  call void @abort() #26
  unreachable

if.end14:                                         ; preds = %for.body
  %stat = getelementptr inbounds i8, ptr %__begin1.0.ptr24, i64 8
  %2 = load i64, ptr %stat, align 8
  %3 = load i64, ptr %tmp, align 8
  %cmp16 = icmp eq i64 %2, %3
  br i1 %cmp16, label %land.rhs, label %for.inc

land.rhs:                                         ; preds = %if.end14
  %st_ino = getelementptr inbounds i8, ptr %__begin1.0.ptr24, i64 16
  %4 = load i64, ptr %st_ino, align 8
  %5 = load i64, ptr %st_ino18, align 8
  %cmp19 = icmp eq i64 %4, %5
  br i1 %cmp19, label %do.body23, label %for.inc

do.body23:                                        ; preds = %land.rhs, %land.rhs26
  %call24 = call i32 (i32, i32, ...) @fcntl64(i32 noundef %conv, i32 noundef 3) #23
  %cond = icmp eq i32 %call24, -1
  br i1 %cond, label %land.rhs26, label %do.end43

land.rhs26:                                       ; preds = %do.body23
  %call27 = tail call ptr @__errno_location() #25
  %6 = load i32, ptr %call27, align 4
  %cmp28 = icmp eq i32 %6, 4
  br i1 %cmp28, label %do.body23, label %do.body38, !llvm.loop !5

do.body38:                                        ; preds = %land.rhs26
  call void @_ZN4node6AssertERKNS_13AssertionInfoE(ptr noundef nonnull align 8 dereferenceable(24) @_ZZN4node10ResetStdioEvE4args_0) #23
  call void @abort() #26
  unreachable

do.end43:                                         ; preds = %do.body23
  %7 = load i32, ptr %__begin1.0.ptr24, align 8
  %xor = xor i32 %7, %call24
  %and45 = and i32 %xor, 2048
  %tobool46.not = icmp eq i32 %and45, 0
  br i1 %tobool46.not, label %if.end73, label %if.then47

if.then47:                                        ; preds = %do.end43
  %and48 = and i32 %call24, -2049
  %and50 = and i32 %7, 2048
  %or = or disjoint i32 %and50, %and48
  br label %do.body51

do.body51:                                        ; preds = %land.rhs55, %if.then47
  %call52 = call i32 (i32, i32, ...) @fcntl64(i32 noundef %conv, i32 noundef 4, i32 noundef %or) #23
  %cond21 = icmp eq i32 %call52, -1
  br i1 %cond21, label %land.rhs55, label %if.end73

land.rhs55:                                       ; preds = %do.body51
  %call56 = tail call ptr @__errno_location() #25
  %8 = load i32, ptr %call56, align 4
  %cmp57 = icmp eq i32 %8, 4
  br i1 %cmp57, label %do.body51, label %do.body67, !llvm.loop !7

do.body67:                                        ; preds = %land.rhs55
  call void @_ZN4node6AssertERKNS_13AssertionInfoE(ptr noundef nonnull align 8 dereferenceable(24) @_ZZN4node10ResetStdioEvE4args_1) #23
  call void @abort() #26
  unreachable

if.end73:                                         ; preds = %do.body51, %do.end43
  %isatty = getelementptr inbounds i8, ptr %__begin1.0.ptr24, i64 4
  %9 = load i8, ptr %isatty, align 4
  %10 = and i8 %9, 1
  %tobool74.not = icmp eq i8 %10, 0
  br i1 %tobool74.not, label %for.inc, label %if.then75

if.then75:                                        ; preds = %if.end73
  %call77 = call i32 @sigemptyset(ptr noundef nonnull %sa) #23
  %call78 = call i32 @sigaddset(ptr noundef nonnull %sa, i32 noundef 22) #23
  %call80 = call i32 @pthread_sigmask(i32 noundef 0, ptr noundef nonnull %sa, ptr noundef null) #23
  %cmp81.not = icmp eq i32 %call80, 0
  br i1 %cmp81.not, label %do.body93.preheader, label %do.body87

do.body93.preheader:                              ; preds = %if.then75
  %termios = getelementptr inbounds i8, ptr %__begin1.0.ptr24, i64 152
  br label %do.body93

do.body87:                                        ; preds = %if.then75
  call void @_ZN4node6AssertERKNS_13AssertionInfoE(ptr noundef nonnull align 8 dereferenceable(24) @_ZZN4node10ResetStdioEvE4args_2) #23
  call void @abort() #26
  unreachable

do.body93:                                        ; preds = %do.body93.preheader, %land.rhs97
  %call94 = call i32 @tcsetattr(i32 noundef %conv, i32 noundef 0, ptr noundef nonnull %termios) #23
  %cmp96.not = icmp eq i32 %call94, -1
  br i1 %cmp96.not, label %land.rhs97, label %do.body102.thread

land.rhs97:                                       ; preds = %do.body93
  %call98 = tail call ptr @__errno_location() #25
  %11 = load i32, ptr %call98, align 4
  %cmp99 = icmp eq i32 %11, 4
  br i1 %cmp99, label %do.body93, label %do.body102, !llvm.loop !8

do.body102:                                       ; preds = %land.rhs97
  %call103 = call i32 @pthread_sigmask(i32 noundef 1, ptr noundef nonnull %sa, ptr noundef null) #23
  %cmp104.not = icmp eq i32 %call103, 0
  br i1 %cmp104.not, label %land.rhs119, label %do.body110

do.body102.thread:                                ; preds = %do.body93
  %call10327 = call i32 @pthread_sigmask(i32 noundef 1, ptr noundef nonnull %sa, ptr noundef null) #23
  %cmp104.not28 = icmp eq i32 %call10327, 0
  br i1 %cmp104.not28, label %lor.end, label %do.body110

do.body110:                                       ; preds = %do.body102.thread, %do.body102
  call void @_ZN4node6AssertERKNS_13AssertionInfoE(ptr noundef nonnull align 8 dereferenceable(24) @_ZZN4node10ResetStdioEvE4args_3) #23
  call void @abort() #26
  unreachable

land.rhs119:                                      ; preds = %do.body102
  %call120 = tail call ptr @__errno_location() #25
  %12 = load i32, ptr %call120, align 4
  %cmp121 = icmp eq i32 %12, 1
  br i1 %cmp121, label %for.inc, label %do.body128

lor.end:                                          ; preds = %do.body102.thread
  %cmp117.not = icmp eq i32 %call94, 0
  br i1 %cmp117.not, label %for.inc, label %do.body128

do.body128:                                       ; preds = %land.rhs119, %lor.end
  call void @_ZN4node6AssertERKNS_13AssertionInfoE(ptr noundef nonnull align 8 dereferenceable(24) @_ZZN4node10ResetStdioEvE4args_4) #23
  call void @abort() #26
  unreachable

for.inc:                                          ; preds = %land.rhs119, %if.end14, %if.end73, %lor.end, %land.rhs, %do.body
  %__begin1.0.add = add nuw nsw i64 %__begin1.0.idx23, 216
  %cmp.not = icmp eq i64 %__begin1.0.add, 648
  br i1 %cmp.not, label %for.end, label %for.body

for.end:                                          ; preds = %for.inc, %entry
  ret void
}